; Function Attrs: mustprogress nounwind uwtable
define dso_local noundef nonnull align 8 dereferenceable(48) ptr @_ZN4llvm3rdflsERNS_11raw_ostreamERKNS0_5PrintINS0_8NodeAddrIPNS0_7PhiNodeEEEEE(ptr noundef nonnull returned align 8 dereferenceable(48) %0, ptr noundef nonnull readonly align 8 captures(none) dereferenceable(16) %1) local_unnamed_addr #0 {
  %3 = alloca %"struct.llvm::rdf::Print.57", align 8
  %4 = alloca %"class.llvm::SmallVector.77", align 8
  %5 = load ptr, ptr %1, align 8
  %6 = getelementptr inbounds nuw i8, ptr %5, i64 8
  %7 = getelementptr inbounds nuw i8, ptr %1, i64 8
  %8 = load ptr, ptr %7, align 8
  store ptr %6, ptr %3, align 8
  %9 = getelementptr inbounds nuw i8, ptr %3, i64 8
  store ptr %8, ptr %9, align 8
  %10 = call noundef nonnull align 8 dereferenceable(48) ptr @_ZN4llvm3rdflsERNS_11raw_ostreamERKNS0_5PrintIjEE(ptr noundef nonnull align 8 dereferenceable(48) %0, ptr noundef nonnull align 8 dereferenceable(16) %3)
  %11 = getelementptr inbounds nuw i8, ptr %10, i64 24
  %12 = load ptr, ptr %11, align 8
  %13 = getelementptr inbounds nuw i8, ptr %10, i64 32
  %14 = load ptr, ptr %13, align 8
  %15 = ptrtoint ptr %12 to i64
  %16 = ptrtoint ptr %14 to i64
  %17 = sub i64 %15, %16
  %18 = icmp ult i64 %17, 7
  br i1 %18, label %19, label %21

19:                                               ; preds = %2
  %20 = tail call noundef nonnull align 8 dereferenceable(48) ptr @_ZN4llvm11raw_ostream5writeEPKcm(ptr noundef nonnull align 8 dereferenceable(48) %10, ptr noundef nonnull @.str.4, i64 noundef 7) #22
  br label %_ZN4llvm11raw_ostreamlsEPKc.exit

21:                                               ; preds = %2
  tail call void @llvm.memcpy.p0.p0.i64(ptr noundef nonnull align 1 dereferenceable(7) %14, ptr noundef nonnull align 1 dereferenceable(7) @.str.4, i64 7, i1 false)
  %22 = load ptr, ptr %13, align 8
  %23 = getelementptr inbounds nuw i8, ptr %22, i64 7
  store ptr %23, ptr %13, align 8
  br label %_ZN4llvm11raw_ostreamlsEPKc.exit

_ZN4llvm11raw_ostreamlsEPKc.exit:                 ; preds = %19, %21
  %.0.i.i = phi ptr [ %20, %19 ], [ %10, %21 ]
  %24 = load ptr, ptr %1, align 8
  %25 = load ptr, ptr %24, align 8
  %26 = load ptr, ptr %7, align 8
  call void @_ZNK4llvm3rdf8CodeNode7membersERKNS0_13DataFlowGraphE(ptr dead_on_unwind nonnull writable sret(%"class.llvm::SmallVector.77") align 8 %4, ptr noundef nonnull align 8 dereferenceable(32) %25, ptr noundef nonnull align 8 dereferenceable(736) %26)
  %27 = load ptr, ptr %7, align 8
  %28 = call fastcc noundef nonnull align 8 dereferenceable(48) ptr @_ZN4llvm3rdf12_GLOBAL__N_1lsIPNS0_7RefNodeEEERNS_11raw_ostreamES6_RKNS1_10PrintListVIT_EE(ptr noundef nonnull align 8 dereferenceable(48) %.0.i.i, ptr %4, ptr %27)
  %29 = getelementptr inbounds nuw i8, ptr %.0.i.i, i64 32
  %30 = load ptr, ptr %29, align 8
  %31 = getelementptr inbounds nuw i8, ptr %.0.i.i, i64 24
  %32 = load ptr, ptr %31, align 8
  %.not.i = icmp ult ptr %30, %32
  br i1 %.not.i, label %35, label %33

33:                                               ; preds = %_ZN4llvm11raw_ostreamlsEPKc.exit
  %34 = call noundef nonnull align 8 dereferenceable(48) ptr @_ZN4llvm11raw_ostream5writeEh(ptr noundef nonnull align 8 dereferenceable(48) %.0.i.i, i8 noundef zeroext 93) #22
  br label %_ZN4llvm11raw_ostreamlsEc.exit

35:                                               ; preds = %_ZN4llvm11raw_ostreamlsEPKc.exit
  %36 = getelementptr inbounds nuw i8, ptr %30, i64 1
  store ptr %36, ptr %29, align 8
  store i8 93, ptr %30, align 1
  br label %_ZN4llvm11raw_ostreamlsEc.exit

_ZN4llvm11raw_ostreamlsEc.exit:                   ; preds = %33, %35
  %37 = call noundef i64 @_ZNK4llvm15SmallVectorBaseIjE4sizeEv(ptr noundef nonnull align 8 dereferenceable(80) %4) #22
  %38 = load ptr, ptr %4, align 8
  %39 = getelementptr inbounds nuw i8, ptr %4, i64 16
  %40 = icmp eq ptr %38, %39
  br i1 %40, label %_ZN4llvm11SmallVectorINS_3rdf8NodeAddrIPNS1_8NodeBaseEEELj4EED2Ev.exit, label %41

41:                                               ; preds = %_ZN4llvm11raw_ostreamlsEc.exit
  call void @free(ptr noundef %38) #22
  br label %_ZN4llvm11SmallVectorINS_3rdf8NodeAddrIPNS1_8NodeBaseEEELj4EED2Ev.exit

_ZN4llvm11SmallVectorINS_3rdf8NodeAddrIPNS1_8NodeBaseEEELj4EED2Ev.exit: ; preds = %_ZN4llvm11raw_ostreamlsEc.exit, %41
  ret ptr %0
}